target datalayout = "e-m:e-p270:32:32-p271:32:32-p272:64:64-i64:64-i128:128-f80:128-n8:16:32:64-S128"
target triple = "x86_64-pc-linux-gnu"

%struct.t_block = type { i32, ptr, i32 }

@.str.1 = private unnamed_addr constant [124 x i8] c"generated/home/dtcxzyw/WorkSpace/Projects/compilers/llvm-opt-benchmark/bench/gromacs/gromacs/src/gromacs/topology/block.cpp\00", align 1
@.str.3 = private unnamed_addr constant [11 x i8] c"grp->index\00", align 1

; Function Attrs: inlinehint mustprogress uwtable
define internal void @_ZL15gmx_srenew_implIiEvPKcS1_iRPT_m(ptr noundef %0, ptr noundef %1, i32 noundef %2, ptr noundef nonnull align 8 dereferenceable(8) %3, i64 noundef %4) #1 {
  %6 = alloca ptr, align 8
  %7 = alloca ptr, align 8
  %8 = alloca i32, align 4
  %9 = alloca ptr, align 8
  %10 = alloca i64, align 8
  store ptr %0, ptr %6, align 8, !tbaa !16
  store ptr %1, ptr %7, align 8, !tbaa !16
  store i32 %2, ptr %8, align 4, !tbaa !15
  store ptr %3, ptr %9, align 8, !tbaa !18
  store i64 %4, ptr %10, align 8, !tbaa !21
  %11 = load ptr, ptr %6, align 8, !tbaa !16
  %12 = load ptr, ptr %7, align 8, !tbaa !16
  %13 = load i32, ptr %8, align 4, !tbaa !15
  %14 = load ptr, ptr %9, align 8, !tbaa !18
  %15 = load ptr, ptr %14, align 8, !tbaa !23
  %16 = load i64, ptr %10, align 8, !tbaa !21
  %17 = call noundef ptr @_Z12save_reallocPKcS0_iPvmm(ptr noundef %11, ptr noundef %12, i32 noundef %13, ptr noundef %15, i64 noundef %16, i64 noundef 4)
  %18 = load ptr, ptr %9, align 8, !tbaa !18
  store ptr %17, ptr %18, align 8, !tbaa !23
  ret void
}

; Function Attrs: mustprogress uwtable
define void @_Z17stupid_fill_blockP7t_blockib(ptr noundef %0, i32 noundef %1, i1 noundef zeroext %2) #0 {
  %4 = alloca ptr, align 8
  %5 = alloca i32, align 4
  %6 = alloca i8, align 1
  %7 = alloca i32, align 4
  store ptr %0, ptr %4, align 8, !tbaa !4
  store i32 %1, ptr %5, align 4, !tbaa !15
  %8 = zext i1 %2 to i8
  store i8 %8, ptr %6, align 1, !tbaa !33
  %9 = load i8, ptr %6, align 1, !tbaa !33, !range !35, !noundef !36
  %10 = trunc i8 %9 to i1
  br i1 %10, label %11, label %31

11:                                               ; preds = %3
  %12 = load ptr, ptr %4, align 8, !tbaa !4
  %13 = getelementptr inbounds nuw %struct.t_block, ptr %12, i32 0, i32 2
  store i32 2, ptr %13, align 8, !tbaa !13
  %14 = load ptr, ptr %4, align 8, !tbaa !4
  %15 = getelementptr inbounds nuw %struct.t_block, ptr %14, i32 0, i32 1
  %16 = load ptr, ptr %4, align 8, !tbaa !4
  %17 = getelementptr inbounds nuw %struct.t_block, ptr %16, i32 0, i32 2
  %18 = load i32, ptr %17, align 8, !tbaa !13
  %19 = sext i32 %18 to i64
  call void @_ZL15gmx_srenew_implIiEvPKcS1_iRPT_m(ptr noundef @.str.3, ptr noundef @.str.1, i32 noundef 95, ptr noundef nonnull align 8 dereferenceable(8) %15, i64 noundef %19)
  %20 = load ptr, ptr %4, align 8, !tbaa !4
  %21 = getelementptr inbounds nuw %struct.t_block, ptr %20, i32 0, i32 1
  %22 = load ptr, ptr %21, align 8, !tbaa !14
  %23 = getelementptr inbounds i32, ptr %22, i64 0
  store i32 0, ptr %23, align 4, !tbaa !15
  %24 = load i32, ptr %5, align 4, !tbaa !15
  %25 = load ptr, ptr %4, align 8, !tbaa !4
  %26 = getelementptr inbounds nuw %struct.t_block, ptr %25, i32 0, i32 1
  %27 = load ptr, ptr %26, align 8, !tbaa !14
  %28 = getelementptr inbounds i32, ptr %27, i64 1
  store i32 %24, ptr %28, align 4, !tbaa !15
  %29 = load ptr, ptr %4, align 8, !tbaa !4
  %30 = getelementptr inbounds nuw %struct.t_block, ptr %29, i32 0, i32 0
  store i32 1, ptr %30, align 8, !tbaa !9
  br label %62

31:                                               ; preds = %3
  %32 = load i32, ptr %5, align 4, !tbaa !15
  %33 = add nsw i32 %32, 1
  %34 = load ptr, ptr %4, align 8, !tbaa !4
  %35 = getelementptr inbounds nuw %struct.t_block, ptr %34, i32 0, i32 2
  store i32 %33, ptr %35, align 8, !tbaa !13
  %36 = load ptr, ptr %4, align 8, !tbaa !4
  %37 = getelementptr inbounds nuw %struct.t_block, ptr %36, i32 0, i32 1
  %38 = load ptr, ptr %4, align 8, !tbaa !4
  %39 = getelementptr inbounds nuw %struct.t_block, ptr %38, i32 0, i32 2
  %40 = load i32, ptr %39, align 8, !tbaa !13
  %41 = sext i32 %40 to i64
  call void @_ZL15gmx_srenew_implIiEvPKcS1_iRPT_m(ptr noundef @.str.3, ptr noundef @.str.1, i32 noundef 103, ptr noundef nonnull align 8 dereferenceable(8) %37, i64 noundef %41)
  call void @llvm.lifetime.start.p0(i64 4, ptr %7) #8
  store i32 0, ptr %7, align 4, !tbaa !15
  br label %42

42:                                               ; preds = %55, %31
  %43 = load i32, ptr %7, align 4, !tbaa !15
  %44 = load i32, ptr %5, align 4, !tbaa !15
  %45 = icmp sle i32 %43, %44
  br i1 %45, label %47, label %46

46:                                               ; preds = %42
  call void @llvm.lifetime.end.p0(i64 4, ptr %7) #8
  br label %58

47:                                               ; preds = %42
  %48 = load i32, ptr %7, align 4, !tbaa !15
  %49 = load ptr, ptr %4, align 8, !tbaa !4
  %50 = getelementptr inbounds nuw %struct.t_block, ptr %49, i32 0, i32 1
  %51 = load ptr, ptr %50, align 8, !tbaa !14
  %52 = load i32, ptr %7, align 4, !tbaa !15
  %53 = sext i32 %52 to i64
  %54 = getelementptr inbounds i32, ptr %51, i64 %53
  store i32 %48, ptr %54, align 4, !tbaa !15
  br label %55

55:                                               ; preds = %47
  %56 = load i32, ptr %7, align 4, !tbaa !15
  %57 = add nsw i32 %56, 1
  store i32 %57, ptr %7, align 4, !tbaa !15
  br label %42, !llvm.loop !37

58:                                               ; preds = %46
  %59 = load i32, ptr %5, align 4, !tbaa !15
  %60 = load ptr, ptr %4, align 8, !tbaa !4
  %61 = getelementptr inbounds nuw %struct.t_block, ptr %60, i32 0, i32 0
  store i32 %59, ptr %61, align 8, !tbaa !9
  br label %62

62:                                               ; preds = %58, %11
  ret void
}