; Function Attrs: mustprogress uwtable
define void @_Z17stupid_fill_blockP7t_blockib(ptr noundef captures(none) initializes((16, 20)) %0, i32 noundef %1, i1 noundef zeroext %2) local_unnamed_addr #0 {
  br i1 %2, label %4, label %10

4:                                                ; preds = %3
  %5 = getelementptr inbounds nuw i8, ptr %0, i64 16
  store i32 2, ptr %5, align 8, !tbaa !11
  %6 = getelementptr inbounds nuw i8, ptr %0, i64 8
  %7 = load ptr, ptr %6, align 8, !tbaa !12
  %8 = tail call noundef ptr @_Z12save_reallocPKcS0_iPvmm(ptr noundef nonnull @.str.3, ptr noundef nonnull @.str.1, i32 noundef 95, ptr noundef %7, i64 noundef 2, i64 noundef 4)
  store ptr %8, ptr %6, align 8, !tbaa !12
  store i32 0, ptr %8, align 4, !tbaa !13
  %9 = getelementptr inbounds nuw i8, ptr %8, i64 4
  store i32 %1, ptr %9, align 4, !tbaa !13
  br label %.loopexit

10:                                               ; preds = %3
  %11 = add i32 %1, 1
  %12 = getelementptr inbounds nuw i8, ptr %0, i64 16
  store i32 %11, ptr %12, align 8, !tbaa !11
  %13 = getelementptr inbounds nuw i8, ptr %0, i64 8
  %14 = sext i32 %11 to i64
  %15 = load ptr, ptr %13, align 8, !tbaa !12
  %16 = tail call noundef ptr @_Z12save_reallocPKcS0_iPvmm(ptr noundef nonnull @.str.3, ptr noundef nonnull @.str.1, i32 noundef 103, ptr noundef %15, i64 noundef range(i64 -2147483647, 2147483648) %14, i64 noundef 4)
  store ptr %16, ptr %13, align 8, !tbaa !12
  %.not20 = icmp slt i32 %1, 0
  br i1 %.not20, label %.loopexit, label %.lr.ph.preheader

.lr.ph.preheader:                                 ; preds = %10
  %wide.trip.count = zext i32 %11 to i64
  br label %.lr.ph

.lr.ph:                                           ; preds = %.lr.ph.preheader, %.lr.ph
  %indvars.iv = phi i64 [ 0, %.lr.ph.preheader ], [ %indvars.iv.next, %.lr.ph ]
  %17 = getelementptr inbounds nuw i32, ptr %16, i64 %indvars.iv
  %18 = trunc nuw nsw i64 %indvars.iv to i32
  store i32 %18, ptr %17, align 4, !tbaa !13
  %indvars.iv.next = add nuw nsw i64 %indvars.iv, 1
  %exitcond.not = icmp eq i64 %indvars.iv.next, %wide.trip.count
  br i1 %exitcond.not, label %.loopexit, label %.lr.ph, !llvm.loop !22

.loopexit:                                        ; preds = %.lr.ph, %10, %4
  %storemerge = phi i32 [ 1, %4 ], [ %1, %10 ], [ %1, %.lr.ph ]
  store i32 %storemerge, ptr %0, align 8, !tbaa !4
  ret void
}